target datalayout = "e-m:e-p270:32:32-p271:32:32-p272:64:64-i64:64-i128:128-f80:128-n8:16:32:64-S128"
target triple = "x86_64-unknown-linux-gnu"

%"class.std::__cxx11::basic_string" = type { %"struct.std::__cxx11::basic_string<char>::_Alloc_hider", i64, %union.anon }
%"struct.std::__cxx11::basic_string<char>::_Alloc_hider" = type { ptr }
%union.anon = type { i64, [8 x i8] }
%"struct.pbrt::TextureEvalContext" = type { %"class.pbrt::Point3", %"class.pbrt::Vector3", %"class.pbrt::Vector3", %"class.pbrt::Normal3", %"class.pbrt::Point2", float, float, float, float, i32 }
%"class.pbrt::Point3" = type { %"class.pbrt::Tuple3" }
%"class.pbrt::Tuple3" = type { float, float, float }
%"class.pbrt::Vector3" = type { %"class.pbrt::Tuple3.0" }
%"class.pbrt::Tuple3.0" = type { float, float, float }
%"class.pbrt::Normal3" = type { %"class.pbrt::Tuple3.1" }
%"class.pbrt::Tuple3.1" = type { float, float, float }
%"class.pbrt::Point2" = type { %"class.pbrt::Tuple2" }
%"class.pbrt::Tuple2" = type { float, float }

@.str = private unnamed_addr constant [110 x i8] c"[ TextureEvalContext p: %s dpdx: %s dpdy: %s n: %s uv: %s dudx: %f dudy: %f dvdx: %f dvdy: %f faceIndex: %d ]\00", align 1

; Function Attrs: mustprogress uwtable
define linkonce_odr dso_local void @_ZN4pbrt12StringPrintfIJRKNS_6Point3IfEERKNS_7Vector3IfEES8_RKNS_7Normal3IfEERKNS_6Point2IfEERKfSI_SI_SI_RKiEEENSt7__cxx1112basic_stringIcSt11char_traitsIcESaIcEEEPKcDpOT_(ptr noalias sret(%"class.std::__cxx11::basic_string") align 8 %agg.result, ptr noundef %fmt, ptr noundef nonnull align 4 dereferenceable(12) %args, ptr noundef nonnull align 4 dereferenceable(12) %args1, ptr noundef nonnull align 4 dereferenceable(12) %args3, ptr noundef nonnull align 4 dereferenceable(12) %args5, ptr noundef nonnull align 4 dereferenceable(8) %args7, ptr noundef nonnull align 4 dereferenceable(4) %args9, ptr noundef nonnull align 4 dereferenceable(4) %args11, ptr noundef nonnull align 4 dereferenceable(4) %args13, ptr noundef nonnull align 4 dereferenceable(4) %args15, ptr noundef nonnull align 4 dereferenceable(4) %args17) #1 comdat personality ptr @__gxx_personality_v0 {
entry:
  %result.ptr = alloca ptr, align 8
  %fmt.addr = alloca ptr, align 8
  %args.addr = alloca ptr, align 8
  %args.addr2 = alloca ptr, align 8
  %args.addr4 = alloca ptr, align 8
  %args.addr6 = alloca ptr, align 8
  %args.addr8 = alloca ptr, align 8
  %args.addr10 = alloca ptr, align 8
  %args.addr12 = alloca ptr, align 8
  %args.addr14 = alloca ptr, align 8
  %args.addr16 = alloca ptr, align 8
  %args.addr18 = alloca ptr, align 8
  %nrvo = alloca i1, align 1
  %exn.slot = alloca ptr, align 8
  %ehselector.slot = alloca i32, align 4
  store ptr %agg.result, ptr %result.ptr, align 8
  store ptr %fmt, ptr %fmt.addr, align 8
  store ptr %args, ptr %args.addr, align 8
  store ptr %args1, ptr %args.addr2, align 8
  store ptr %args3, ptr %args.addr4, align 8
  store ptr %args5, ptr %args.addr6, align 8
  store ptr %args7, ptr %args.addr8, align 8
  store ptr %args9, ptr %args.addr10, align 8
  store ptr %args11, ptr %args.addr12, align 8
  store ptr %args13, ptr %args.addr14, align 8
  store ptr %args15, ptr %args.addr16, align 8
  store ptr %args17, ptr %args.addr18, align 8
  store i1 false, ptr %nrvo, align 1
  call void @_ZNSt7__cxx1112basic_stringIcSt11char_traitsIcESaIcEEC1Ev(ptr noundef nonnull align 8 dereferenceable(32) %agg.result) #9
  %0 = load ptr, ptr %fmt.addr, align 8
  %1 = load ptr, ptr %args.addr, align 8
  %2 = load ptr, ptr %args.addr2, align 8
  %3 = load ptr, ptr %args.addr4, align 8
  %4 = load ptr, ptr %args.addr6, align 8
  %5 = load ptr, ptr %args.addr8, align 8
  %6 = load ptr, ptr %args.addr10, align 8
  %7 = load ptr, ptr %args.addr12, align 8
  %8 = load ptr, ptr %args.addr14, align 8
  %9 = load ptr, ptr %args.addr16, align 8
  %10 = load ptr, ptr %args.addr18, align 8
  invoke void @_ZN4pbrt6detail21stringPrintfRecursiveIRKNS_6Point3IfEEJRKNS_7Vector3IfEES9_RKNS_7Normal3IfEERKNS_6Point2IfEERKfSJ_SJ_SJ_RKiEEEvPNSt7__cxx1112basic_stringIcSt11char_traitsIcESaIcEEEPKcOT_DpOT0_(ptr noundef %agg.result, ptr noundef %0, ptr noundef nonnull align 4 dereferenceable(12) %1, ptr noundef nonnull align 4 dereferenceable(12) %2, ptr noundef nonnull align 4 dereferenceable(12) %3, ptr noundef nonnull align 4 dereferenceable(12) %4, ptr noundef nonnull align 4 dereferenceable(8) %5, ptr noundef nonnull align 4 dereferenceable(4) %6, ptr noundef nonnull align 4 dereferenceable(4) %7, ptr noundef nonnull align 4 dereferenceable(4) %8, ptr noundef nonnull align 4 dereferenceable(4) %9, ptr noundef nonnull align 4 dereferenceable(4) %10)
          to label %invoke.cont unwind label %lpad

invoke.cont:                                      ; preds = %entry
  store i1 true, ptr %nrvo, align 1
  %nrvo.val = load i1, ptr %nrvo, align 1
  br i1 %nrvo.val, label %nrvo.skipdtor, label %nrvo.unused

lpad:                                             ; preds = %entry
  %11 = landingpad { ptr, i32 }
          cleanup
  %12 = extractvalue { ptr, i32 } %11, 0
  store ptr %12, ptr %exn.slot, align 8
  %13 = extractvalue { ptr, i32 } %11, 1
  store i32 %13, ptr %ehselector.slot, align 4
  call void @_ZNSt7__cxx1112basic_stringIcSt11char_traitsIcESaIcEED1Ev(ptr noundef nonnull align 8 dereferenceable(32) %agg.result) #9
  br label %eh.resume

nrvo.unused:                                      ; preds = %invoke.cont
  call void @_ZNSt7__cxx1112basic_stringIcSt11char_traitsIcESaIcEED1Ev(ptr noundef nonnull align 8 dereferenceable(32) %agg.result) #9
  br label %nrvo.skipdtor

nrvo.skipdtor:                                    ; preds = %nrvo.unused, %invoke.cont
  ret void

eh.resume:                                        ; preds = %lpad
  %exn = load ptr, ptr %exn.slot, align 8
  %sel = load i32, ptr %ehselector.slot, align 4
  %lpad.val = insertvalue { ptr, i32 } poison, ptr %exn, 0
  %lpad.val19 = insertvalue { ptr, i32 } %lpad.val, i32 %sel, 1
  resume { ptr, i32 } %lpad.val19
}

; Function Attrs: mustprogress uwtable
define dso_local void @_ZNK4pbrt18TextureEvalContext8ToStringB5cxx11Ev(ptr noalias sret(%"class.std::__cxx11::basic_string") align 8 %agg.result, ptr noundef nonnull align 4 dereferenceable(76) %this) #1 align 2 {
entry:
  %result.ptr = alloca ptr, align 8
  %this.addr = alloca ptr, align 8
  store ptr %agg.result, ptr %result.ptr, align 8
  store ptr %this, ptr %this.addr, align 8
  %this1 = load ptr, ptr %this.addr, align 8
  %p = getelementptr inbounds %"struct.pbrt::TextureEvalContext", ptr %this1, i32 0, i32 0
  %dpdx = getelementptr inbounds %"struct.pbrt::TextureEvalContext", ptr %this1, i32 0, i32 1
  %dpdy = getelementptr inbounds %"struct.pbrt::TextureEvalContext", ptr %this1, i32 0, i32 2
  %n = getelementptr inbounds %"struct.pbrt::TextureEvalContext", ptr %this1, i32 0, i32 3
  %uv = getelementptr inbounds %"struct.pbrt::TextureEvalContext", ptr %this1, i32 0, i32 4
  %dudx = getelementptr inbounds %"struct.pbrt::TextureEvalContext", ptr %this1, i32 0, i32 5
  %dudy = getelementptr inbounds %"struct.pbrt::TextureEvalContext", ptr %this1, i32 0, i32 6
  %dvdx = getelementptr inbounds %"struct.pbrt::TextureEvalContext", ptr %this1, i32 0, i32 7
  %dvdy = getelementptr inbounds %"struct.pbrt::TextureEvalContext", ptr %this1, i32 0, i32 8
  %faceIndex = getelementptr inbounds %"struct.pbrt::TextureEvalContext", ptr %this1, i32 0, i32 9
  call void @_ZN4pbrt12StringPrintfIJRKNS_6Point3IfEERKNS_7Vector3IfEES8_RKNS_7Normal3IfEERKNS_6Point2IfEERKfSI_SI_SI_RKiEEENSt7__cxx1112basic_stringIcSt11char_traitsIcESaIcEEEPKcDpOT_(ptr sret(%"class.std::__cxx11::basic_string") align 8 %agg.result, ptr noundef @.str, ptr noundef nonnull align 4 dereferenceable(12) %p, ptr noundef nonnull align 4 dereferenceable(12) %dpdx, ptr noundef nonnull align 4 dereferenceable(12) %dpdy, ptr noundef nonnull align 4 dereferenceable(12) %n, ptr noundef nonnull align 4 dereferenceable(8) %uv, ptr noundef nonnull align 4 dereferenceable(4) %dudx, ptr noundef nonnull align 4 dereferenceable(4) %dudy, ptr noundef nonnull align 4 dereferenceable(4) %dvdx, ptr noundef nonnull align 4 dereferenceable(4) %dvdy, ptr noundef nonnull align 4 dereferenceable(4) %faceIndex)
  ret void
}