; Function Attrs: mustprogress uwtable
define dso_local void @_ZNK4pbrt18TextureEvalContext8ToStringB5cxx11Ev(ptr noalias nonnull sret(%"class.std::__cxx11::basic_string") align 8 %agg.result, ptr noundef nonnull align 4 dereferenceable(76) %this) local_unnamed_addr #0 align 2 personality ptr @__gxx_personality_v0 {
entry:
  %dpdx = getelementptr inbounds i8, ptr %this, i64 12
  %dpdy = getelementptr inbounds i8, ptr %this, i64 24
  %n = getelementptr inbounds i8, ptr %this, i64 36
  %uv = getelementptr inbounds i8, ptr %this, i64 48
  %dudx = getelementptr inbounds i8, ptr %this, i64 56
  %dudy = getelementptr inbounds i8, ptr %this, i64 60
  %dvdx = getelementptr inbounds i8, ptr %this, i64 64
  %dvdy = getelementptr inbounds i8, ptr %this, i64 68
  %faceIndex = getelementptr inbounds i8, ptr %this, i64 72
  tail call void @_ZNSt7__cxx1112basic_stringIcSt11char_traitsIcESaIcEEC1Ev(ptr noundef nonnull align 8 dereferenceable(32) %agg.result) #23
  invoke void @_ZN4pbrt6detail21stringPrintfRecursiveIRKNS_6Point3IfEEJRKNS_7Vector3IfEES9_RKNS_7Normal3IfEERKNS_6Point2IfEERKfSJ_SJ_SJ_RKiEEEvPNSt7__cxx1112basic_stringIcSt11char_traitsIcESaIcEEEPKcOT_DpOT0_(ptr noundef nonnull %agg.result, ptr noundef nonnull @.str, ptr noundef nonnull align 4 dereferenceable(12) %this, ptr noundef nonnull align 4 dereferenceable(12) %dpdx, ptr noundef nonnull align 4 dereferenceable(12) %dpdy, ptr noundef nonnull align 4 dereferenceable(12) %n, ptr noundef nonnull align 4 dereferenceable(8) %uv, ptr noundef nonnull align 4 dereferenceable(4) %dudx, ptr noundef nonnull align 4 dereferenceable(4) %dudy, ptr noundef nonnull align 4 dereferenceable(4) %dvdx, ptr noundef nonnull align 4 dereferenceable(4) %dvdy, ptr noundef nonnull align 4 dereferenceable(4) %faceIndex)
          to label %_ZN4pbrt12StringPrintfIJRKNS_6Point3IfEERKNS_7Vector3IfEES8_RKNS_7Normal3IfEERKNS_6Point2IfEERKfSI_SI_SI_RKiEEENSt7__cxx1112basic_stringIcSt11char_traitsIcESaIcEEEPKcDpOT_.exit unwind label %lpad.i

lpad.i:                                           ; preds = %entry
  %0 = landingpad { ptr, i32 }
          cleanup
  tail call void @_ZNSt7__cxx1112basic_stringIcSt11char_traitsIcESaIcEED1Ev(ptr noundef nonnull align 8 dereferenceable(32) %agg.result) #23
  resume { ptr, i32 } %0

_ZN4pbrt12StringPrintfIJRKNS_6Point3IfEERKNS_7Vector3IfEES8_RKNS_7Normal3IfEERKNS_6Point2IfEERKfSI_SI_SI_RKiEEENSt7__cxx1112basic_stringIcSt11char_traitsIcESaIcEEEPKcDpOT_.exit: ; preds = %entry
  ret void
}